target datalayout = "e-m:e-p270:32:32-p271:32:32-p272:64:64-i64:64-i128:128-f80:128-n8:16:32:64-S128"
target triple = "x86_64-pc-linux-gnu"

%struct._async_dns_queue_msg = type { %union.anon.4, i32 }
%union.anon.4 = type { i32, [12 x i8] }
%struct.hostent = type { ptr, ptr, i32, i32, ptr }

@addr_resolv_scope = internal global ptr null, align 8
@async_dns_in_flight = internal global i32 0, align 4

; Function Attrs: null_pointer_is_valid sspstrong uwtable
define internal void @c_ares_ghba_cb(ptr noundef %0, i32 noundef %1, i32 noundef %2, ptr noundef %3) #3 {
  %5 = alloca ptr, align 8
  %6 = alloca i32, align 4
  %7 = alloca i32, align 4
  %8 = alloca ptr, align 8
  %9 = alloca ptr, align 8
  %10 = alloca ptr, align 8
  %11 = alloca i32, align 4
  store ptr %0, ptr %5, align 8
  store i32 %1, ptr %6, align 4
  store i32 %2, ptr %7, align 4
  store ptr %3, ptr %8, align 8
  call void @llvm.lifetime.start.p0(i64 8, ptr %9) #16
  %12 = load ptr, ptr %5, align 8
  store ptr %12, ptr %9, align 8
  call void @llvm.lifetime.start.p0(i64 8, ptr %10) #16
  %13 = load ptr, ptr %9, align 8
  %14 = icmp ne ptr %13, null
  br i1 %14, label %16, label %15

15:                                               ; preds = %4
  store i32 1, ptr %11, align 4
  br label %55

16:                                               ; preds = %4
  %17 = load i32, ptr @async_dns_in_flight, align 4
  %18 = add i32 %17, -1
  store i32 %18, ptr @async_dns_in_flight, align 4
  %19 = load i32, ptr %6, align 4
  %20 = icmp eq i32 %19, 0
  br i1 %20, label %21, label %52

21:                                               ; preds = %16
  %22 = load ptr, ptr %8, align 8
  %23 = getelementptr inbounds nuw %struct.hostent, ptr %22, i32 0, i32 4
  %24 = load ptr, ptr %23, align 8
  store ptr %24, ptr %10, align 8
  br label %25

25:                                               ; preds = %48, %21
  %26 = load ptr, ptr %10, align 8
  %27 = load ptr, ptr %26, align 8
  %28 = icmp ne ptr %27, null
  br i1 %28, label %29, label %51

29:                                               ; preds = %25
  %30 = load ptr, ptr %9, align 8
  %31 = getelementptr inbounds nuw %struct._async_dns_queue_msg, ptr %30, i32 0, i32 1
  %32 = load i32, ptr %31, align 4
  switch i32 %32, label %46 [
    i32 2, label %33
    i32 10, label %40
  ]

33:                                               ; preds = %29
  %34 = load ptr, ptr %9, align 8
  %35 = getelementptr inbounds nuw %struct._async_dns_queue_msg, ptr %34, i32 0, i32 0
  %36 = load i32, ptr %35, align 4
  %37 = load ptr, ptr %8, align 8
  %38 = getelementptr inbounds nuw %struct.hostent, ptr %37, i32 0, i32 0
  %39 = load ptr, ptr %38, align 8
  call void @add_ipv4_name(i32 noundef %36, ptr noundef %39, i1 noundef zeroext false)
  br label %47

40:                                               ; preds = %29
  %41 = load ptr, ptr %9, align 8
  %42 = getelementptr inbounds nuw %struct._async_dns_queue_msg, ptr %41, i32 0, i32 0
  %43 = load ptr, ptr %8, align 8
  %44 = getelementptr inbounds nuw %struct.hostent, ptr %43, i32 0, i32 0
  %45 = load ptr, ptr %44, align 8
  call void @add_ipv6_name(ptr noundef %42, ptr noundef %45, i1 noundef zeroext false)
  br label %47

46:                                               ; preds = %29
  br label %47

47:                                               ; preds = %46, %40, %33
  br label %48

48:                                               ; preds = %47
  %49 = load ptr, ptr %10, align 8
  %50 = getelementptr ptr, ptr %49, i32 1
  store ptr %50, ptr %10, align 8
  br label %25, !llvm.loop !38

51:                                               ; preds = %25
  br label %52

52:                                               ; preds = %51, %16
  %53 = load ptr, ptr @addr_resolv_scope, align 8
  %54 = load ptr, ptr %9, align 8
  call void @wmem_free(ptr noundef %53, ptr noundef %54)
  store i32 0, ptr %11, align 4
  br label %55

55:                                               ; preds = %52, %15
  call void @llvm.lifetime.end.p0(i64 8, ptr %10) #16
  call void @llvm.lifetime.end.p0(i64 8, ptr %9) #16
  %56 = load i32, ptr %11, align 4
  switch i32 %56, label %58 [
    i32 0, label %57
    i32 1, label %57
  ]

57:                                               ; preds = %55, %55
  ret void

58:                                               ; preds = %55
  unreachable
}