; Function Attrs: null_pointer_is_valid sspstrong uwtable
define internal void @c_ares_ghba_cb(ptr noundef %0, i32 noundef %1, i32 %2, ptr noundef readonly captures(none) %3) #3 {
  %.not = icmp eq ptr %0, null
  br i1 %.not, label %25, label %5

5:                                                ; preds = %4
  %6 = load i32, ptr @async_dns_in_flight, align 4
  %7 = add i32 %6, -1
  store i32 %7, ptr @async_dns_in_flight, align 4
  %8 = icmp eq i32 %1, 0
  br i1 %8, label %9, label %.loopexit

9:                                                ; preds = %5
  %10 = getelementptr inbounds nuw i8, ptr %3, i64 24
  %11 = load ptr, ptr %10, align 8
  %12 = load ptr, ptr %11, align 8
  %.not1213 = icmp eq ptr %12, null
  br i1 %.not1213, label %.loopexit, label %.lr.ph

.lr.ph:                                           ; preds = %9
  %13 = getelementptr inbounds nuw i8, ptr %0, i64 16
  br label %14

14:                                               ; preds = %.lr.ph, %21
  %.014 = phi ptr [ %11, %.lr.ph ], [ %22, %21 ]
  %15 = load i32, ptr %13, align 4
  switch i32 %15, label %21 [
    i32 2, label %16
    i32 10, label %19
  ]

16:                                               ; preds = %14
  %17 = load i32, ptr %0, align 4
  %18 = load ptr, ptr %3, align 8
  tail call void @add_ipv4_name(i32 noundef %17, ptr noundef %18, i1 noundef zeroext false)
  br label %21

19:                                               ; preds = %14
  %20 = load ptr, ptr %3, align 8
  tail call void @add_ipv6_name(ptr noundef nonnull %0, ptr noundef %20, i1 noundef zeroext false)
  br label %21

21:                                               ; preds = %16, %19, %14
  %22 = getelementptr i8, ptr %.014, i64 8
  %23 = load ptr, ptr %22, align 8
  %.not12 = icmp eq ptr %23, null
  br i1 %.not12, label %.loopexit, label %14, !llvm.loop !54

.loopexit:                                        ; preds = %21, %9, %5
  %24 = load ptr, ptr @addr_resolv_scope, align 8
  tail call void @wmem_free(ptr noundef %24, ptr noundef nonnull %0)
  br label %25

25:                                               ; preds = %4, %.loopexit
  ret void
}